target datalayout = "e-m:e-p270:32:32-p271:32:32-p272:64:64-i64:64-i128:128-f80:128-n8:16:32:64-S128"
target triple = "x86_64-pc-linux-gnu"

%class.MetadataHandles = type { ptr, ptr, i64, i32, i32, i32, i32 }
%class.MetadataHandleBlock = type { [32 x %struct._jmetadata], i32, ptr }
%struct._jmetadata = type { ptr }
%class.ConstantPool = type <{ %class.Metadata, ptr, ptr, ptr, ptr, ptr, i16, i16, i16, i16, i16, [2 x i8], i32, %union.anon, [4 x i8] }>
%class.Metadata = type { ptr }
%union.anon = type { i32 }
%class.Klass = type <{ %class.Metadata, i32, i32, i32, i32, ptr, ptr, ptr, [8 x ptr], %class.OopHandle, ptr, ptr, ptr, ptr, ptr, i32, %class.AccessFlags, i64, i64, i8, i8, i16, i16, [2 x i8], i32, [4 x i8] }>
%class.OopHandle = type { ptr }
%class.AccessFlags = type { i32 }
%class.ClassLoaderData = type { %class.WeakHandle, %class.OopHandle, ptr, ptr, i8, i8, i8, i32, i32, %"class.ClassLoaderData::ChunkedHandleList", ptr, ptr, ptr, ptr, ptr, ptr, ptr, ptr, ptr, ptr, ptr, ptr, i64 }
%class.WeakHandle = type { ptr }
%"class.ClassLoaderData::ChunkedHandleList" = type { ptr }
%"struct.Atomic::CmpxchgImpl" = type { i8 }
%class.Method = type { %class.Metadata, ptr, ptr, ptr, ptr, %class.AccessFlags, i32, %class.MethodFlags, i16, %class.JfrTraceFlag, ptr, ptr, ptr, ptr }
%class.MethodFlags = type { i32 }
%class.JfrTraceFlag = type { i16 }
%class.ConstMethod = type <{ i64, ptr, ptr, i32, %class.ConstMethodFlags, i8, i8, i16, i16, i16, i16, i16, i16, i16, i16, i16, [4 x i8] }>
%class.ConstMethodFlags = type { i32 }
%"struct.Atomic::PlatformCmpxchg" = type { i8 }

@g_assert_poison = external global ptr, align 8
@.str = private unnamed_addr constant [44 x i8] c"src/hotspot/share/jvmci/metadataHandles.cpp\00", align 1
@.str.4 = private unnamed_addr constant [33 x i8] c"guarantee(old_value == 0) failed\00", align 1
@.str.5 = private unnamed_addr constant [26 x i8] c"only other possible value\00", align 1

; Function Attrs: mustprogress nounwind uwtable
define linkonce_odr hidden noundef i64 @_ZNK6Atomic15PlatformCmpxchgILm8EEclIlEET_PVS3_S3_S3_19atomic_memory_order(ptr noundef nonnull align 1 dereferenceable(1) %0, ptr noundef %1, i64 noundef %2, i64 noundef %3, i32 noundef %4) #1 comdat align 2 {
  %6 = alloca ptr, align 8
  %7 = alloca ptr, align 8
  %8 = alloca i64, align 8
  %9 = alloca i64, align 8
  %10 = alloca i32, align 4
  store ptr %0, ptr %6, align 8
  store ptr %1, ptr %7, align 8
  store i64 %2, ptr %8, align 8
  store i64 %3, ptr %9, align 8
  store i32 %4, ptr %10, align 4
  %11 = load i64, ptr %9, align 8
  %12 = load i64, ptr %8, align 8
  %13 = load ptr, ptr %7, align 8
  %14 = call i64 asm sideeffect "lock cmpxchgq $1,($3)", "={ax},r,{ax},r,~{cc},~{memory},~{dirflag},~{fpsr},~{flags}"(i64 %11, i64 %12, ptr %13) #4, !srcloc !14
  store i64 %14, ptr %9, align 8
  %15 = load i64, ptr %9, align 8
  ret i64 %15
}

; Function Attrs: mustprogress nounwind uwtable
define linkonce_odr hidden noundef ptr @_ZNK11ConstMethod9constantsEv(ptr noundef nonnull align 8 dereferenceable(52) %0) #1 comdat align 2 {
  %2 = alloca ptr, align 8
  store ptr %0, ptr %2, align 8
  %3 = load ptr, ptr %2, align 8
  %4 = getelementptr inbounds %class.ConstMethod, ptr %3, i32 0, i32 1
  %5 = load ptr, ptr %4, align 8
  ret ptr %5
}

; Function Attrs: mustprogress nounwind uwtable
define linkonce_odr hidden noundef ptr @_ZNK6Method11constMethodEv(ptr noundef nonnull align 8 dereferenceable(88) %0) #1 comdat align 2 {
  %2 = alloca ptr, align 8
  store ptr %0, ptr %2, align 8
  %3 = load ptr, ptr %2, align 8
  %4 = getelementptr inbounds %class.Method, ptr %3, i32 0, i32 1
  %5 = load ptr, ptr %4, align 8
  ret ptr %5
}

; Function Attrs: mustprogress nounwind uwtable
define linkonce_odr hidden noundef i64 @_ZNK6Atomic11CmpxchgImplIlllvEclEPVlll19atomic_memory_order(ptr noundef nonnull align 1 dereferenceable(1) %0, ptr noundef %1, i64 noundef %2, i64 noundef %3, i32 noundef %4) #1 comdat align 2 {
  %6 = alloca ptr, align 8
  %7 = alloca ptr, align 8
  %8 = alloca i64, align 8
  %9 = alloca i64, align 8
  %10 = alloca i32, align 4
  %11 = alloca %"struct.Atomic::PlatformCmpxchg", align 1
  store ptr %0, ptr %6, align 8
  store ptr %1, ptr %7, align 8
  store i64 %2, ptr %8, align 8
  store i64 %3, ptr %9, align 8
  store i32 %4, ptr %10, align 4
  %12 = load ptr, ptr %7, align 8
  %13 = load i64, ptr %8, align 8
  %14 = load i64, ptr %9, align 8
  %15 = load i32, ptr %10, align 4
  %16 = call noundef i64 @_ZNK6Atomic15PlatformCmpxchgILm8EEclIlEET_PVS3_S3_S3_19atomic_memory_order(ptr noundef nonnull align 1 dereferenceable(1) %11, ptr noundef %12, i64 noundef %13, i64 noundef %14, i32 noundef %15)
  ret i64 %16
}

; Function Attrs: mustprogress nounwind uwtable
define linkonce_odr hidden noundef ptr @_ZNK6Method9constantsEv(ptr noundef nonnull align 8 dereferenceable(88) %0) #1 comdat align 2 {
  %2 = alloca ptr, align 8
  store ptr %0, ptr %2, align 8
  %3 = load ptr, ptr %2, align 8
  %4 = call noundef ptr @_ZNK6Method11constMethodEv(ptr noundef nonnull align 8 dereferenceable(88) %3)
  %5 = call noundef ptr @_ZNK11ConstMethod9constantsEv(ptr noundef nonnull align 8 dereferenceable(52) %4)
  ret ptr %5
}

; Function Attrs: mustprogress nounwind uwtable
define linkonce_odr hidden noundef i64 @_ZN6Atomic7cmpxchgIlllEET_PVS1_T0_T1_19atomic_memory_order(ptr noundef %0, i64 noundef %1, i64 noundef %2, i32 noundef %3) #1 comdat align 2 {
  %5 = alloca ptr, align 8
  %6 = alloca i64, align 8
  %7 = alloca i64, align 8
  %8 = alloca i32, align 4
  %9 = alloca %"struct.Atomic::CmpxchgImpl", align 1
  store ptr %0, ptr %5, align 8
  store i64 %1, ptr %6, align 8
  store i64 %2, ptr %7, align 8
  store i32 %3, ptr %8, align 4
  %10 = load ptr, ptr %5, align 8
  %11 = load i64, ptr %6, align 8
  %12 = load i64, ptr %7, align 8
  %13 = load i32, ptr %8, align 4
  %14 = call noundef i64 @_ZNK6Atomic11CmpxchgImplIlllvEclEPVlll19atomic_memory_order(ptr noundef nonnull align 1 dereferenceable(1) %9, ptr noundef %10, i64 noundef %11, i64 noundef %12, i32 noundef %13)
  ret i64 %14
}

; Function Attrs: mustprogress nounwind uwtable
define linkonce_odr hidden noundef zeroext i1 @_ZNK15ClassLoaderData12is_unloadingEv(ptr noundef nonnull align 8 dereferenceable(160) %0) #1 comdat align 2 {
  %2 = alloca ptr, align 8
  store ptr %0, ptr %2, align 8
  %3 = load ptr, ptr %2, align 8
  %4 = getelementptr inbounds %class.ClassLoaderData, ptr %3, i32 0, i32 4
  %5 = load i8, ptr %4, align 8
  %6 = trunc i8 %5 to i1
  ret i1 %6
}

; Function Attrs: mustprogress nounwind uwtable
define linkonce_odr hidden noundef ptr @_ZNK5Klass17class_loader_dataEv(ptr noundef nonnull align 8 dereferenceable(196) %0) #1 comdat align 2 {
  %2 = alloca ptr, align 8
  store ptr %0, ptr %2, align 8
  %3 = load ptr, ptr %2, align 8
  %4 = getelementptr inbounds %class.Klass, ptr %3, i32 0, i32 14
  %5 = load ptr, ptr %4, align 8
  ret ptr %5
}

; Function Attrs: mustprogress nounwind uwtable
define linkonce_odr hidden noundef ptr @_ZNK12ConstantPool11pool_holderEv(ptr noundef nonnull align 8 dereferenceable(68) %0) #1 comdat align 2 {
  %2 = alloca ptr, align 8
  store ptr %0, ptr %2, align 8
  %3 = load ptr, ptr %2, align 8
  %4 = getelementptr inbounds %class.ConstantPool, ptr %3, i32 0, i32 3
  %5 = load ptr, ptr %4, align 8
  ret ptr %5
}

; Function Attrs: mustprogress nounwind uwtable
define linkonce_odr hidden noundef ptr @_ZNK6Method13method_holderEv(ptr noundef nonnull align 8 dereferenceable(88) %0) #1 comdat align 2 {
  %2 = alloca ptr, align 8
  store ptr %0, ptr %2, align 8
  %3 = load ptr, ptr %2, align 8
  %4 = call noundef ptr @_ZNK6Method9constantsEv(ptr noundef nonnull align 8 dereferenceable(88) %3)
  %5 = call noundef ptr @_ZNK12ConstantPool11pool_holderEv(ptr noundef nonnull align 8 dereferenceable(68) %4)
  ret ptr %5
}

; Function Attrs: mustprogress nounwind uwtable
define linkonce_odr hidden noundef ptr @_ZN10_jmetadata5valueEv(ptr noundef nonnull align 8 dereferenceable(8) %0) #1 comdat align 2 {
  %2 = alloca ptr, align 8
  store ptr %0, ptr %2, align 8
  %3 = load ptr, ptr %2, align 8
  %4 = getelementptr inbounds %struct._jmetadata, ptr %3, i32 0, i32 0
  %5 = load ptr, ptr %4, align 8
  ret ptr %5
}

; Function Attrs: mustprogress nounwind uwtable
define hidden void @_ZN15MetadataHandles12do_unloadingEv(ptr noundef nonnull align 8 dereferenceable(40) %0) #1 align 2 {
  %2 = alloca ptr, align 8
  %3 = alloca ptr, align 8
  %4 = alloca i32, align 4
  %5 = alloca ptr, align 8
  %6 = alloca ptr, align 8
  %7 = alloca ptr, align 8
  %8 = alloca ptr, align 8
  %9 = alloca ptr, align 8
  %10 = alloca i64, align 8
  store ptr %0, ptr %2, align 8
  %11 = load ptr, ptr %2, align 8
  %12 = getelementptr inbounds %class.MetadataHandles, ptr %11, i32 0, i32 0
  %13 = load ptr, ptr %12, align 8
  store ptr %13, ptr %3, align 8
  br label %14

14:                                               ; preds = %108, %1
  %15 = load ptr, ptr %3, align 8
  %16 = icmp ne ptr %15, null
  br i1 %16, label %17, label %112

17:                                               ; preds = %14
  store i32 0, ptr %4, align 4
  br label %18

18:                                               ; preds = %98, %17
  %19 = load i32, ptr %4, align 4
  %20 = load ptr, ptr %3, align 8
  %21 = getelementptr inbounds %class.MetadataHandleBlock, ptr %20, i32 0, i32 1
  %22 = load i32, ptr %21, align 8
  %23 = icmp slt i32 %19, %22
  br i1 %23, label %24, label %101

24:                                               ; preds = %18
  %25 = load ptr, ptr %3, align 8
  %26 = getelementptr inbounds %class.MetadataHandleBlock, ptr %25, i32 0, i32 0
  %27 = load i32, ptr %4, align 4
  %28 = sext i32 %27 to i64
  %29 = getelementptr inbounds [32 x %struct._jmetadata], ptr %26, i64 0, i64 %28
  store ptr %29, ptr %5, align 8
  %30 = load ptr, ptr %5, align 8
  %31 = call noundef ptr @_ZN10_jmetadata5valueEv(ptr noundef nonnull align 8 dereferenceable(8) %30)
  store ptr %31, ptr %6, align 8
  %32 = load ptr, ptr %6, align 8
  %33 = icmp ne ptr %32, null
  br i1 %33, label %34, label %97

34:                                               ; preds = %24
  %35 = load ptr, ptr %6, align 8
  %36 = ptrtoint ptr %35 to i64
  %37 = and i64 %36, 1
  %38 = icmp eq i64 %37, 0
  br i1 %38, label %39, label %97

39:                                               ; preds = %34
  store ptr null, ptr %7, align 8
  %40 = load ptr, ptr %6, align 8
  %41 = load ptr, ptr %40, align 8
  %42 = getelementptr inbounds ptr, ptr %41, i64 1
  %43 = load ptr, ptr %42, align 8
  %44 = call noundef zeroext i1 %43(ptr noundef nonnull align 8 dereferenceable(8) %40)
  br i1 %44, label %45, label %47

45:                                               ; preds = %39
  %46 = load ptr, ptr %6, align 8
  store ptr %46, ptr %7, align 8
  br label %73

47:                                               ; preds = %39
  %48 = load ptr, ptr %6, align 8
  %49 = load ptr, ptr %48, align 8
  %50 = getelementptr inbounds ptr, ptr %49, i64 2
  %51 = load ptr, ptr %50, align 8
  %52 = call noundef zeroext i1 %51(ptr noundef nonnull align 8 dereferenceable(8) %48)
  br i1 %52, label %53, label %57

53:                                               ; preds = %47
  %54 = load ptr, ptr %6, align 8
  store ptr %54, ptr %8, align 8
  %55 = load ptr, ptr %8, align 8
  %56 = call noundef ptr @_ZNK6Method13method_holderEv(ptr noundef nonnull align 8 dereferenceable(88) %55)
  store ptr %56, ptr %7, align 8
  br label %72

57:                                               ; preds = %47
  %58 = load ptr, ptr %6, align 8
  %59 = load ptr, ptr %58, align 8
  %60 = getelementptr inbounds ptr, ptr %59, i64 4
  %61 = load ptr, ptr %60, align 8
  %62 = call noundef zeroext i1 %61(ptr noundef nonnull align 8 dereferenceable(8) %58)
  br i1 %62, label %63, label %67

63:                                               ; preds = %57
  %64 = load ptr, ptr %6, align 8
  store ptr %64, ptr %9, align 8
  %65 = load ptr, ptr %9, align 8
  %66 = call noundef ptr @_ZNK12ConstantPool11pool_holderEv(ptr noundef nonnull align 8 dereferenceable(68) %65)
  store ptr %66, ptr %7, align 8
  br label %71

67:                                               ; preds = %57
  br label %68

68:                                               ; preds = %67
  %69 = load ptr, ptr @g_assert_poison, align 8
  store i8 88, ptr %69, align 1
  call void @_Z28report_should_not_reach_herePKci(ptr noundef @.str, i32 noundef 151) #5
  unreachable

70:                                               ; No predecessors!
  br label %71

71:                                               ; preds = %70, %63
  br label %72

72:                                               ; preds = %71, %53
  br label %73

73:                                               ; preds = %72, %45
  %74 = load ptr, ptr %7, align 8
  %75 = call noundef ptr @_ZNK5Klass17class_loader_dataEv(ptr noundef nonnull align 8 dereferenceable(196) %74)
  %76 = call noundef zeroext i1 @_ZNK15ClassLoaderData12is_unloadingEv(ptr noundef nonnull align 8 dereferenceable(160) %75)
  br i1 %76, label %77, label %96

77:                                               ; preds = %73
  %78 = load ptr, ptr %5, align 8
  %79 = load ptr, ptr %6, align 8
  %80 = ptrtoint ptr %79 to i64
  %81 = call noundef i64 @_ZN6Atomic7cmpxchgIlllEET_PVS1_T0_T1_19atomic_memory_order(ptr noundef %78, i64 noundef %80, i64 noundef 1, i32 noundef 8)
  store i64 %81, ptr %10, align 8
  %82 = load i64, ptr %10, align 8
  %83 = load ptr, ptr %6, align 8
  %84 = ptrtoint ptr %83 to i64
  %85 = icmp eq i64 %82, %84
  br i1 %85, label %86, label %87

86:                                               ; preds = %77
  br label %95

87:                                               ; preds = %77
  br label %88

88:                                               ; preds = %87
  %89 = load i64, ptr %10, align 8
  %90 = icmp eq i64 %89, 0
  br i1 %90, label %93, label %91

91:                                               ; preds = %88
  %92 = load ptr, ptr @g_assert_poison, align 8
  store i8 88, ptr %92, align 1
  call void (ptr, i32, ptr, ptr, ...) @_Z15report_vm_errorPKciS0_S0_z(ptr noundef @.str, i32 noundef 162, ptr noundef @.str.4, ptr noundef @.str.5) #5
  unreachable

93:                                               ; preds = %88
  br label %94

94:                                               ; preds = %93
  br label %95

95:                                               ; preds = %94, %86
  br label %96

96:                                               ; preds = %95, %73
  br label %97

97:                                               ; preds = %96, %34, %24
  br label %98

98:                                               ; preds = %97
  %99 = load i32, ptr %4, align 4
  %100 = add nsw i32 %99, 1
  store i32 %100, ptr %4, align 4
  br label %18, !llvm.loop !12

101:                                              ; preds = %18
  %102 = load ptr, ptr %3, align 8
  %103 = getelementptr inbounds %class.MetadataHandleBlock, ptr %102, i32 0, i32 1
  %104 = load i32, ptr %103, align 8
  %105 = icmp slt i32 %104, 32
  br i1 %105, label %106, label %107

106:                                              ; preds = %101
  br label %112

107:                                              ; preds = %101
  br label %108

108:                                              ; preds = %107
  %109 = load ptr, ptr %3, align 8
  %110 = getelementptr inbounds %class.MetadataHandleBlock, ptr %109, i32 0, i32 2
  %111 = load ptr, ptr %110, align 8
  store ptr %111, ptr %3, align 8
  br label %14, !llvm.loop !13

112:                                              ; preds = %106, %14
  ret void
}