; Function Attrs: mustprogress nounwind uwtable
define hidden void @_ZN15MetadataHandles12do_unloadingEv(ptr nocapture noundef nonnull readonly align 8 dereferenceable(40) %0) local_unnamed_addr #0 align 2 {
  %.034 = load ptr, ptr %0, align 8
  %.not35 = icmp eq ptr %.034, null
  br i1 %.not35, label %._crit_edge37, label %.preheader

2:                                                ; preds = %._crit_edge
  %3 = getelementptr inbounds i8, ptr %.036, i64 264
  %.0 = load ptr, ptr %3, align 8
  %.not = icmp eq ptr %.0, null
  br i1 %.not, label %._crit_edge37, label %.preheader, !llvm.loop !12

.preheader:                                       ; preds = %1, %2
  %.036 = phi ptr [ %.0, %2 ], [ %.034, %1 ]
  %4 = getelementptr inbounds i8, ptr %.036, i64 256
  %5 = load i32, ptr %4, align 8
  %6 = icmp sgt i32 %5, 0
  br i1 %6, label %.lr.ph, label %._crit_edge37

.lr.ph:                                           ; preds = %.preheader, %49
  %indvars.iv = phi i64 [ %indvars.iv.next, %49 ], [ 0, %.preheader ]
  %7 = getelementptr inbounds [32 x %struct._jmetadata], ptr %.036, i64 0, i64 %indvars.iv
  %8 = load ptr, ptr %7, align 8
  %.not30 = icmp eq ptr %8, null
  br i1 %.not30, label %49, label %9

9:                                                ; preds = %.lr.ph
  %10 = ptrtoint ptr %8 to i64
  %11 = and i64 %10, 1
  %12 = icmp eq i64 %11, 0
  br i1 %12, label %13, label %49

13:                                               ; preds = %9
  %14 = load ptr, ptr %8, align 8
  %15 = getelementptr inbounds i8, ptr %14, i64 8
  %16 = load ptr, ptr %15, align 8
  %17 = tail call noundef zeroext i1 %16(ptr noundef nonnull align 8 dereferenceable(8) %8) #4
  br i1 %17, label %37, label %18

18:                                               ; preds = %13
  %19 = load ptr, ptr %8, align 8
  %20 = getelementptr inbounds i8, ptr %19, i64 16
  %21 = load ptr, ptr %20, align 8
  %22 = tail call noundef zeroext i1 %21(ptr noundef nonnull align 8 dereferenceable(8) %8) #4
  br i1 %22, label %23, label %28

23:                                               ; preds = %18
  %24 = getelementptr inbounds i8, ptr %8, i64 8
  %25 = load ptr, ptr %24, align 8
  %26 = getelementptr inbounds i8, ptr %25, i64 8
  %27 = load ptr, ptr %26, align 8
  br label %.sink.split

28:                                               ; preds = %18
  %29 = load ptr, ptr %8, align 8
  %30 = getelementptr inbounds i8, ptr %29, i64 32
  %31 = load ptr, ptr %30, align 8
  %32 = tail call noundef zeroext i1 %31(ptr noundef nonnull align 8 dereferenceable(8) %8) #4
  br i1 %32, label %.sink.split, label %33

33:                                               ; preds = %28
  %34 = load ptr, ptr @g_assert_poison, align 8
  store i8 88, ptr %34, align 1
  tail call void @_Z28report_should_not_reach_herePKci(ptr noundef nonnull @.str, i32 noundef 151) #5
  unreachable

.sink.split:                                      ; preds = %28, %23
  %.sink42 = phi ptr [ %27, %23 ], [ %8, %28 ]
  %35 = getelementptr inbounds i8, ptr %.sink42, i64 24
  %36 = load ptr, ptr %35, align 8
  br label %37

37:                                               ; preds = %.sink.split, %13
  %.027 = phi ptr [ %8, %13 ], [ %36, %.sink.split ]
  %38 = getelementptr inbounds i8, ptr %.027, i64 152
  %39 = load ptr, ptr %38, align 8
  %40 = getelementptr inbounds i8, ptr %39, i64 32
  %41 = load i8, ptr %40, align 8
  %42 = trunc i8 %41 to i1
  br i1 %42, label %43, label %49

43:                                               ; preds = %37
  %44 = tail call noundef i64 asm sideeffect "lock cmpxchgq $1,($3)", "={ax},r,{ax},r,~{cc},~{memory},~{dirflag},~{fpsr},~{flags}"(i64 1, i64 %10, ptr nonnull %7) #4, !srcloc !13
  %45 = icmp eq i64 %44, %10
  %46 = icmp eq i64 %44, 0
  %or.cond = or i1 %45, %46
  br i1 %or.cond, label %49, label %47

47:                                               ; preds = %43
  %48 = load ptr, ptr @g_assert_poison, align 8
  store i8 88, ptr %48, align 1
  tail call void (ptr, i32, ptr, ptr, ...) @_Z15report_vm_errorPKciS0_S0_z(ptr noundef nonnull @.str, i32 noundef 162, ptr noundef nonnull @.str.4, ptr noundef nonnull @.str.5) #5
  unreachable

49:                                               ; preds = %.lr.ph, %9, %43, %37
  %indvars.iv.next = add nuw nsw i64 %indvars.iv, 1
  %50 = load i32, ptr %4, align 8
  %51 = sext i32 %50 to i64
  %52 = icmp slt i64 %indvars.iv.next, %51
  br i1 %52, label %.lr.ph, label %._crit_edge, !llvm.loop !14

._crit_edge:                                      ; preds = %49
  %53 = icmp slt i32 %50, 32
  br i1 %53, label %._crit_edge37, label %2

._crit_edge37:                                    ; preds = %.preheader, %2, %._crit_edge, %1
  ret void
}